; ModuleID = '58/413.cpp'
source_filename = "58/413.cpp"
target datalayout = "e-m:e-p270:32:32-p271:32:32-p272:64:64-i64:64-f80:128-n8:16:32:64-S128"
target triple = "x86_64-pc-linux-gnu"

%"class.std::ios_base::Init" = type { i8 }
%"class.std::basic_istream" = type { i32 (...)**, i64, %"class.std::basic_ios" }
%"class.std::basic_ios" = type { %"class.std::ios_base", %"class.std::basic_ostream"*, i8, i8, %"class.std::basic_streambuf"*, %"class.std::ctype"*, %"class.std::num_put"*, %"class.std::num_get"* }
%"class.std::ios_base" = type { i32 (...)**, i64, i64, i32, i32, i32, %"struct.std::ios_base::_Callback_list"*, %"struct.std::ios_base::_Words", [8 x %"struct.std::ios_base::_Words"], i32, %"struct.std::ios_base::_Words"*, %"class.std::locale" }
%"struct.std::ios_base::_Callback_list" = type { %"struct.std::ios_base::_Callback_list"*, void (i32, %"class.std::ios_base"*, i32)*, i32, i32 }
%"struct.std::ios_base::_Words" = type { i8*, i64 }
%"class.std::locale" = type { %"class.std::locale::_Impl"* }
%"class.std::locale::_Impl" = type { i32, %"class.std::locale::facet"**, i64, %"class.std::locale::facet"**, i8** }
%"class.std::locale::facet" = type <{ i32 (...)**, i32, [4 x i8] }>
%"class.std::basic_ostream" = type { i32 (...)**, %"class.std::basic_ios" }
%"class.std::basic_streambuf" = type { i32 (...)**, i8*, i8*, i8*, i8*, i8*, i8*, %"class.std::locale" }
%"class.std::ctype" = type <{ %"class.std::locale::facet.base", [4 x i8], %struct.__locale_struct*, i8, [7 x i8], i32*, i32*, i16*, i8, [256 x i8], [256 x i8], i8, [6 x i8] }>
%"class.std::locale::facet.base" = type <{ i32 (...)**, i32 }>
%struct.__locale_struct = type { [13 x %struct.__locale_data*], i16*, i32*, i32*, [13 x i8*] }
%struct.__locale_data = type opaque
%"class.std::num_put" = type { %"class.std::locale::facet.base", [4 x i8] }
%"class.std::num_get" = type { %"class.std::locale::facet.base", [4 x i8] }

@_ZStL8__ioinit = internal global %"class.std::ios_base::Init" zeroinitializer, align 1
@__dso_handle = external hidden global i8
@_ZSt3cin = external dso_local global %"class.std::basic_istream", align 8
@_ZSt4cout = external dso_local global %"class.std::basic_ostream", align 8
@llvm.global_ctors = appending global [1 x { i32, void ()*, i8* }] [{ i32, void ()*, i8* } { i32 65535, void ()* @_GLOBAL__sub_I_413.cpp, i8* null }]

; Function Attrs: noinline uwtable
define internal void @__cxx_global_var_init() #0 section ".text.startup" {
  call void @_ZNSt8ios_base4InitC1Ev(%"class.std::ios_base::Init"* @_ZStL8__ioinit)
  %1 = call i32 @__cxa_atexit(void (i8*)* bitcast (void (%"class.std::ios_base::Init"*)* @_ZNSt8ios_base4InitD1Ev to void (i8*)*), i8* getelementptr inbounds (%"class.std::ios_base::Init", %"class.std::ios_base::Init"* @_ZStL8__ioinit, i32 0, i32 0), i8* @__dso_handle) #3
  ret void
}

declare dso_local void @_ZNSt8ios_base4InitC1Ev(%"class.std::ios_base::Init"*) unnamed_addr #1

; Function Attrs: nounwind
declare dso_local void @_ZNSt8ios_base4InitD1Ev(%"class.std::ios_base::Init"*) unnamed_addr #2

; Function Attrs: nounwind
declare dso_local i32 @__cxa_atexit(void (i8*)*, i8*, i8*) #3

; Function Attrs: noinline norecurse uwtable
define dso_local i32 @main() #4 {
  %1 = alloca i32, align 4
  %2 = alloca [81 x i8], align 16
  %3 = alloca i32, align 4
  %4 = alloca i32, align 4
  %5 = alloca i32, align 4
  %6 = alloca i32, align 4
  store i32 0, i32* %1, align 4
  %7 = call dereferenceable(280) %"class.std::basic_istream"* @_ZNSirsERi(%"class.std::basic_istream"* @_ZSt3cin, i32* dereferenceable(4) %3)
  %8 = call i32 @_ZNSi3getEv(%"class.std::basic_istream"* @_ZSt3cin)
  br label %9

9:                                                ; preds = %106, %0
  %10 = load i32, i32* %3, align 4
  %11 = add nsw i32 %10, -1
  store i32 %11, i32* %3, align 4
  %12 = icmp ne i32 %10, 0
  br i1 %12, label %13, label %110

13:                                               ; preds = %9
  %14 = getelementptr inbounds [81 x i8], [81 x i8]* %2, i64 0, i64 0
  %15 = call dereferenceable(280) %"class.std::basic_istream"* @_ZNSi7getlineEPcl(%"class.std::basic_istream"* @_ZSt3cin, i8* %14, i64 81)
  %16 = getelementptr inbounds [81 x i8], [81 x i8]* %2, i64 0, i64 0
  %17 = call i64 @strlen(i8* %16) #6
  %18 = trunc i64 %17 to i32
  store i32 %18, i32* %5, align 4
  %19 = getelementptr inbounds [81 x i8], [81 x i8]* %2, i64 0, i64 0
  %20 = load i8, i8* %19, align 16
  %21 = sext i8 %20 to i32
  %22 = icmp eq i32 %21, 95
  br i1 %22, label %43, label %23

23:                                               ; preds = %13
  %24 = getelementptr inbounds [81 x i8], [81 x i8]* %2, i64 0, i64 0
  %25 = load i8, i8* %24, align 16
  %26 = sext i8 %25 to i32
  %27 = icmp sge i32 %26, 97
  br i1 %27, label %28, label %33

28:                                               ; preds = %23
  %29 = getelementptr inbounds [81 x i8], [81 x i8]* %2, i64 0, i64 0
  %30 = load i8, i8* %29, align 16
  %31 = sext i8 %30 to i32
  %32 = icmp sle i32 %31, 122
  br i1 %32, label %43, label %33

33:                                               ; preds = %28, %23
  %34 = getelementptr inbounds [81 x i8], [81 x i8]* %2, i64 0, i64 0
  %35 = load i8, i8* %34, align 16
  %36 = sext i8 %35 to i32
  %37 = icmp sge i32 %36, 65
  br i1 %37, label %38, label %105

38:                                               ; preds = %33
  %39 = getelementptr inbounds [81 x i8], [81 x i8]* %2, i64 0, i64 0
  %40 = load i8, i8* %39, align 16
  %41 = sext i8 %40 to i32
  %42 = icmp sle i32 %41, 90
  br i1 %42, label %43, label %105

43:                                               ; preds = %38, %28, %13
  store i32 1, i32* %6, align 4
  store i32 1, i32* %4, align 4
  br label %44

44:                                               ; preds = %101, %43
  %45 = load i32, i32* %4, align 4
  %46 = load i32, i32* %5, align 4
  %47 = sub nsw i32 %46, 1
  %48 = icmp sle i32 %45, %47
  br i1 %48, label %49, label %104

49:                                               ; preds = %44
  %50 = load i32, i32* %4, align 4
  %51 = sext i32 %50 to i64
  %52 = getelementptr inbounds [81 x i8], [81 x i8]* %2, i64 0, i64 %51
  %53 = load i8, i8* %52, align 1
  %54 = sext i8 %53 to i32
  %55 = icmp eq i32 %54, 95
  br i1 %55, label %98, label %56

56:                                               ; preds = %49
  %57 = load i32, i32* %4, align 4
  %58 = sext i32 %57 to i64
  %59 = getelementptr inbounds [81 x i8], [81 x i8]* %2, i64 0, i64 %58
  %60 = load i8, i8* %59, align 1
  %61 = sext i8 %60 to i32
  %62 = icmp sge i32 %61, 97
  br i1 %62, label %63, label %70

63:                                               ; preds = %56
  %64 = load i32, i32* %4, align 4
  %65 = sext i32 %64 to i64
  %66 = getelementptr inbounds [81 x i8], [81 x i8]* %2, i64 0, i64 %65
  %67 = load i8, i8* %66, align 1
  %68 = sext i8 %67 to i32
  %69 = icmp sle i32 %68, 122
  br i1 %69, label %98, label %70

70:                                               ; preds = %63, %56
  %71 = load i32, i32* %4, align 4
  %72 = sext i32 %71 to i64
  %73 = getelementptr inbounds [81 x i8], [81 x i8]* %2, i64 0, i64 %72
  %74 = load i8, i8* %73, align 1
  %75 = sext i8 %74 to i32
  %76 = icmp sge i32 %75, 65
  br i1 %76, label %77, label %84

77:                                               ; preds = %70
  %78 = load i32, i32* %4, align 4
  %79 = sext i32 %78 to i64
  %80 = getelementptr inbounds [81 x i8], [81 x i8]* %2, i64 0, i64 %79
  %81 = load i8, i8* %80, align 1
  %82 = sext i8 %81 to i32
  %83 = icmp sle i32 %82, 90
  br i1 %83, label %98, label %84

84:                                               ; preds = %77, %70
  %85 = load i32, i32* %4, align 4
  %86 = sext i32 %85 to i64
  %87 = getelementptr inbounds [81 x i8], [81 x i8]* %2, i64 0, i64 %86
  %88 = load i8, i8* %87, align 1
  %89 = sext i8 %88 to i32
  %90 = icmp sle i32 %89, 57
  br i1 %90, label %91, label %99

91:                                               ; preds = %84
  %92 = load i32, i32* %4, align 4
  %93 = sext i32 %92 to i64
  %94 = getelementptr inbounds [81 x i8], [81 x i8]* %2, i64 0, i64 %93
  %95 = load i8, i8* %94, align 1
  %96 = sext i8 %95 to i32
  %97 = icmp sge i32 %96, 48
  br i1 %97, label %98, label %99

98:                                               ; preds = %91, %77, %63, %49
  store i32 1, i32* %6, align 4
  br label %100

99:                                               ; preds = %91, %84
  store i32 0, i32* %6, align 4
  br label %104

100:                                              ; preds = %98
  br label %101

101:                                              ; preds = %100
  %102 = load i32, i32* %4, align 4
  %103 = add nsw i32 %102, 1
  store i32 %103, i32* %4, align 4
  br label %44

104:                                              ; preds = %99, %44
  br label %106

105:                                              ; preds = %38, %33
  store i32 0, i32* %6, align 4
  br label %106

106:                                              ; preds = %105, %104
  %107 = load i32, i32* %6, align 4
  %108 = call dereferenceable(272) %"class.std::basic_ostream"* @_ZNSolsEi(%"class.std::basic_ostream"* @_ZSt4cout, i32 %107)
  %109 = call dereferenceable(272) %"class.std::basic_ostream"* @_ZNSolsEPFRSoS_E(%"class.std::basic_ostream"* %108, %"class.std::basic_ostream"* (%"class.std::basic_ostream"*)* @_ZSt4endlIcSt11char_traitsIcEERSt13basic_ostreamIT_T0_ES6_)
  br label %9

110:                                              ; preds = %9
  ret i32 0
}

declare dso_local dereferenceable(280) %"class.std::basic_istream"* @_ZNSirsERi(%"class.std::basic_istream"*, i32* dereferenceable(4)) #1

declare dso_local i32 @_ZNSi3getEv(%"class.std::basic_istream"*) #1

declare dso_local dereferenceable(280) %"class.std::basic_istream"* @_ZNSi7getlineEPcl(%"class.std::basic_istream"*, i8*, i64) #1

; Function Attrs: nounwind readonly
declare dso_local i64 @strlen(i8*) #5

declare dso_local dereferenceable(272) %"class.std::basic_ostream"* @_ZNSolsEi(%"class.std::basic_ostream"*, i32) #1

declare dso_local dereferenceable(272) %"class.std::basic_ostream"* @_ZNSolsEPFRSoS_E(%"class.std::basic_ostream"*, %"class.std::basic_ostream"* (%"class.std::basic_ostream"*)*) #1

declare dso_local dereferenceable(272) %"class.std::basic_ostream"* @_ZSt4endlIcSt11char_traitsIcEERSt13basic_ostreamIT_T0_ES6_(%"class.std::basic_ostream"* dereferenceable(272)) #1

; Function Attrs: noinline uwtable
define internal void @_GLOBAL__sub_I_413.cpp() #0 section ".text.startup" {
  call void @__cxx_global_var_init()
  ret void
}


!llvm.module.flags = !{!0}
!llvm.ident = !{!1}

!0 = !{i32 1, !"wchar_size", i32 4}
!1 = !{!"clang version 10.0.0-4ubuntu1 "}
